; Function Attrs: mustprogress nofree norecurse nosync nounwind willreturn memory(argmem: read) uwtable
define dso_local noundef zeroext i1 @_ZNK4llvm11Instruction14hasAtomicStoreEv(ptr nocapture noundef nonnull readonly align 8 dereferenceable(72) %0) local_unnamed_addr #7 align 2 {
  %2 = load i8, ptr %0, align 8
  %switch.tableidx = add i8 %2, -62
  %3 = icmp ult i8 %switch.tableidx, 5
  %switch.cast = trunc i8 %switch.tableidx to i5
  %switch.downshift = lshr i5 -7, %switch.cast
  %switch.masked = trunc i5 %switch.downshift to i1
  %.0 = select i1 %3, i1 %switch.masked, i1 false
  ret i1 %.0
}